Certificate:
    Data:
        Version: 3 (0x2)
        Serial Number: 1 (0x1)
    Signature Algorithm: sha1WithRSAEncryption
        Issuer: C=US, ST=Unset, L=Unset, O=Unset, CN=www.example.com
        Validity
            Not Before: Mar 17 19:14:23 2014 GMT
            Not After : Mar 14 19:14:23 2024 GMT
        Subject: C=US, ST=Unset, O=Unset, CN=www.example.com
        Subject Public Key Info:
            Public Key Algorithm: rsaEncryption
                Public-Key: (2048 bit)
                Modulus:
                    00:b3:70:a3:0f:6e:64:ba:58:1a:5d:17:6f:67:60:
                    95:07:00:58:e3:cc:70:8c:19:18:de:a7:30:86:22:
                    b3:ce:97:1b:d4:24:2e:dd:0b:2b:e0:47:3e:92:46:
                    3a:d4:44:7c:ea:72:76:42:a9:21:e7:83:5d:83:c8:
                    74:e2:f8:ee:d3:e7:28:79:55:9a:27:e9:72:05:83:
                    da:48:ab:af:20:2b:80:ca:58:b2:a2:28:c9:f7:1c:
                    f5:b4:e3:1b:b5:d4:4d:a5:02:a4:b8:8e:e1:5d:85:
                    e2:d3:7c:bd:29:fe:68:a7:10:7a:18:c9:3b:b7:3d:
                    75:a7:de:d3:4e:49:a7:39:94:5e:d2:99:1e:db:9c:
                    b4:10:84:de:b3:1f:78:d4:ed:ac:f3:a3:4e:04:ac:
                    04:4b:8f:a3:5a:85:fe:bb:7c:c3:40:f1:c1:9a:46:
                    14:df:5a:9d:7e:af:00:f6:8b:61:05:51:9b:b8:c9:
                    cd:55:82:ae:11:94:63:b2:06:20:e2:e6:b2:41:31:
                    9a:89:41:3d:44:c3:51:f4:75:89:f0:ba:a6:ce:29:
                    98:1a:82:15:f4:31:99:89:33:ab:66:22:be:fe:fa:
                    e5:bc:42:f0:88:98:f4:6d:cf:b9:7f:02:a4:a5:a4:
                    08:e5:df:f0:91:64:88:9e:59:65:87:bd:25:dc:a6:
                    9a:37
                Exponent: 65537 (0x10001)
        X509v3 extensions:
            X509v3 Basic Constraints: 
                CA:FALSE
            X509v3 Subject Key Identifier: 
                94:4E:6B:B8:59:73:4B:E8:07:15:EE:EE:97:09:CE:43:BF:76:75:F9
            X509v3 Authority Key Identifier: 
                keyid:C0:AF:C4:5E:48:7B:C3:C5:97:5A:C5:98:7C:B7:B7:E4:F6:C4:D3:E2

    Signature Algorithm: sha1WithRSAEncryption
         61:a2:f4:6a:a4:79:65:a9:05:3d:e8:53:b0:81:a1:d4:4e:a1:
         f9:ba:2a:4d:72:f7:7d:88:d2:7c:d1:00:f2:67:2e:c8:bc:bd:
         f2:9e:0d:8f:75:52:06:19:bf:11:b3:b7:d2:7f:4c:32:c5:c8:
         98:f3:2b:68:7d:78:d6:d1:4b:8d:4a:da:d6:e8:75:f6:fa:71:
         75:9c:b8:e2:31:fc:1e:6d:68:5b:e6:13:3c:cc:90:5e:09:2b:
         d6:8c:d5:6e:8f:5f:de:78:1d:6a:22:8d:bb:05:8c:b7:f3:23:
         a3:21:42:92:b0:af:cf:35:e1:1b:14:bc:a3:ce:e7:78:da:f0:
         17:9f:fd:e2:62:f9:0d:de:c2:36:7f:f4:87:25:99:8d:79:c0:
         c3:0f:5f:c4:51:e0:1c:23:14:40:cd:21:1f:2a:83:e7:31:78:
         49:fd:9b:9e:73:95:17:97:3b:43:eb:2e:80:3c:8b:76:10:4e:
         bc:47:2d:3a:e9:41:82:e0:79:9d:aa:a8:0d:4f:3d:88:e2:82:
         7f:f5:34:e5:35:45:24:e9:97:6c:49:69:ff:5f:0c:bf:ab:52:
         61:02:21:37:64:3f:03:2e:fd:08:28:d3:f7:47:9f:93:2e:da:
         d9:c8:2b:fc:27:2c:be:3e:2d:82:55:e2:2c:bb:7e:18:8f:c3:
         ae:9b:c2:5a
-----BEGIN CERTIFICATE-----
MIIDZjCCAk6gAwIBAgIBATANBgkqhkiG9w0BAQUFADBXMQswCQYDVQQGEwJVUzEO
MAwGA1UECAwFVW5zZXQxDjAMBgNVBAcMBVVuc2V0MQ4wDAYDVQQKDAVVbnNldDEY
MBYGA1UEAwwPd3d3LmV4YW1wbGUuY29tMB4XDTE0MDMxNzE5MTQyM1oXDTI0MDMx
NDE5MTQyM1owRzELMAkGA1UEBhMCVVMxDjAMBgNVBAgMBVVuc2V0MQ4wDAYDVQQK
DAVVbnNldDEYMBYGA1UEAwwPd3d3LmV4YW1wbGUuY29tMIIBIjANBgkqhkiG9w0B
AQEFAAOCAQ8AMIIBCgKCAQEAs3CjD25kulgaXRdvZ2CVBwBY48xwjBkY3qcwhiKz
zpcb1CQu3Qsr4Ec+kkY61ER86nJ2Qqkh54Ndg8h04vju0+coeVWaJ+lyBYPaSKuv
ICuAyliyoijJ9xz1tOMbtdRNpQKkuI7hXYXi03y9Kf5opxB6GMk7tz11p97TTkmn
OZRe0pke25y0EITesx941O2s86NOBKwES4+jWoX+u3zDQPHBmkYU31qdfq8A9oth
BVGbuMnNVYKuEZRjsgYg4uayQTGaiUE9RMNR9HWJ8LqmzimYGoIV9DGZiTOrZiK+
/vrlvELwiJj0bc+5fwKkpaQI5d/wkWSInlllh70l3KaaNwIDAQABo00wSzAJBgNV
HRMEAjAAMB0GA1UdDgQWBBSUTmu4WXNL6AcV7u6XCc5Dv3Z1+TAfBgNVHSMEGDAW
gBTAr8ReSHvDxZdaxZh8t7fk9sTT4jANBgkqhkiG9w0BAQUFAAOCAQEAYaL0aqR5
ZakFPehTsIGh1E6h+boqTXL3fYjSfNEA8mcuyLy98p4Nj3VSBhm/EbO30n9MMsXI
mPMraH141tFLjUra1uh19vpxdZy44jH8Hm1oW+YTPMyQXgkr1ozVbo9f3ngdaiKN
uwWMt/MjoyFCkrCvzzXhGxS8o87neNrwF5/94mL5Dd7CNn/0hyWZjXnAww9fxFHg
HCMUQM0hHyqD5zF4Sf2bnnOVF5c7Q+sugDyLdhBOvEctOulBguB5naqoDU89iOKC
f/U05TVFJOmXbElp/18Mv6tSYQIhN2Q/Ay79CCjT90efky7a2cgr/Ccsvj4tglXi
LLt+GI/DrpvCWg==
-----END CERTIFICATE-----
